(ikeras_frcnn.config
Config
p0
(dp1
S'use_vertical_flips'
p2
I00
sS'verbose'
p3
I01
sS'classifier_regr_std'
p4
(lp5
F8.0
aF8.0
aF4.0
aF4.0
asS'classifier_min_overlap'
p6
F0.1
sS'rot_90'
p7
I00
sS'class_mapping'
p8
(dp9
S'person'
p10
I0
sS'bg'
p11
I2
sS'car'
p12
I1
ssS'use_horizontal_flips'
p13
I00
sS'rpn_max_overlap'
p14
F0.7
sS'network'
p15
S'resnet50'
p16
sS'img_channel_mean'
p17
(lp18
F103.939
aF116.779
aF123.68
asS'balanced_classes'
p19
I00
sS'anchor_box_ratios'
p20
(lp21
(lp22
I1
aI1
aa(lp23
I1
aI2
aa(lp24
I2
aI1
aasS'img_scaling_factor'
p25
F1.0
sS'rpn_stride'
p26
I16
sS'num_rois'
p27
I32
sS'base_net_weights'
p28
S'model_trained/8_11/model_frcnn.hdf5'
p29
sS'anchor_box_scales'
p30
(lp31
I32
aI64
aI128
asS'rpn_min_overlap'
p32
F0.3
sS'model_path'
p33
S'./model_frcnn.hdf5'
p34
sS'classifier_max_overlap'
p35
F0.5
sS'std_scaling'
p36
F4.0
sS'im_size'
p37
I1088
sb.